target datalayout = "e-m:e-p270:32:32-p271:32:32-p272:64:64-i64:64-i128:128-f80:128-n8:16:32:64-S128"
target triple = "x86_64-pc-linux-gnu"

%struct.HWDevice = type { ptr, i32, ptr }

@nb_hw_devices = internal global i32 0, align 4
@hw_devices = internal global ptr null, align 8
@filter_hw_device = external global ptr, align 8
@.str.11 = private unnamed_addr constant [191 x i8] c"There are %d hardware devices. device %s of type %s is picked for filters by default. Set hardware device explicitly with the filter_hw_device option if device %s is not usable for filters.\0A\00", align 1

; Function Attrs: nounwind uwtable
define ptr @hw_device_for_filter() #0 {
  %1 = alloca ptr, align 8
  %2 = alloca ptr, align 8
  %3 = load ptr, ptr @filter_hw_device, align 8, !tbaa !8
  %4 = icmp ne ptr %3, null
  br i1 %4, label %5, label %9

5:                                                ; preds = %0
  %6 = load ptr, ptr @filter_hw_device, align 8, !tbaa !8
  %7 = getelementptr inbounds nuw %struct.HWDevice, ptr %6, i32 0, i32 2
  %8 = load ptr, ptr %7, align 8, !tbaa !29
  store ptr %8, ptr %1, align 8
  br label %39

9:                                                ; preds = %0
  %10 = load i32, ptr @nb_hw_devices, align 4, !tbaa !4
  %11 = icmp sgt i32 %10, 0
  br i1 %11, label %12, label %37

12:                                               ; preds = %9
  call void @llvm.lifetime.start.p0(i64 8, ptr %2) #5
  %13 = load ptr, ptr @hw_devices, align 8, !tbaa !11
  %14 = load i32, ptr @nb_hw_devices, align 4, !tbaa !4
  %15 = sub nsw i32 %14, 1
  %16 = sext i32 %15 to i64
  %17 = getelementptr inbounds ptr, ptr %13, i64 %16
  %18 = load ptr, ptr %17, align 8, !tbaa !8
  store ptr %18, ptr %2, align 8, !tbaa !8
  %19 = load i32, ptr @nb_hw_devices, align 4, !tbaa !4
  %20 = icmp sgt i32 %19, 1
  br i1 %20, label %21, label %33

21:                                               ; preds = %12
  %22 = load i32, ptr @nb_hw_devices, align 4, !tbaa !4
  %23 = load ptr, ptr %2, align 8, !tbaa !8
  %24 = getelementptr inbounds nuw %struct.HWDevice, ptr %23, i32 0, i32 0
  %25 = load ptr, ptr %24, align 8, !tbaa !21
  %26 = load ptr, ptr %2, align 8, !tbaa !8
  %27 = getelementptr inbounds nuw %struct.HWDevice, ptr %26, i32 0, i32 1
  %28 = load i32, ptr %27, align 8, !tbaa !14
  %29 = call ptr @av_hwdevice_get_type_name(i32 noundef %28)
  %30 = load ptr, ptr %2, align 8, !tbaa !8
  %31 = getelementptr inbounds nuw %struct.HWDevice, ptr %30, i32 0, i32 0
  %32 = load ptr, ptr %31, align 8, !tbaa !21
  call void (ptr, i32, ptr, ...) @av_log(ptr noundef null, i32 noundef 24, ptr noundef @.str.11, i32 noundef %22, ptr noundef %25, ptr noundef %29, ptr noundef %32)
  br label %33

33:                                               ; preds = %21, %12
  %34 = load ptr, ptr %2, align 8, !tbaa !8
  %35 = getelementptr inbounds nuw %struct.HWDevice, ptr %34, i32 0, i32 2
  %36 = load ptr, ptr %35, align 8, !tbaa !29
  store ptr %36, ptr %1, align 8
  call void @llvm.lifetime.end.p0(i64 8, ptr %2) #5
  br label %39

37:                                               ; preds = %9
  br label %38

38:                                               ; preds = %37
  store ptr null, ptr %1, align 8
  br label %39

39:                                               ; preds = %38, %33, %5
  %40 = load ptr, ptr %1, align 8
  ret ptr %40
}