; Function Attrs: nounwind uwtable
define ptr @hw_device_for_filter() local_unnamed_addr #4 {
  %1 = load ptr, ptr @filter_hw_device, align 8, !tbaa !12
  %.not = icmp eq ptr %1, null
  br i1 %.not, label %2, label %.sink.split

2:                                                ; preds = %0
  %3 = load i32, ptr @nb_hw_devices, align 4, !tbaa !4
  %4 = icmp sgt i32 %3, 0
  br i1 %4, label %5, label %19

5:                                                ; preds = %2
  %6 = load ptr, ptr @hw_devices, align 8, !tbaa !8
  %7 = zext nneg i32 %3 to i64
  %8 = getelementptr ptr, ptr %6, i64 %7
  %9 = getelementptr i8, ptr %8, i64 -8
  %10 = load ptr, ptr %9, align 8, !tbaa !12
  %.not7 = icmp eq i32 %3, 1
  br i1 %.not7, label %.sink.split, label %11

11:                                               ; preds = %5
  %12 = load ptr, ptr %10, align 8, !tbaa !21
  %13 = getelementptr inbounds nuw i8, ptr %10, i64 8
  %14 = load i32, ptr %13, align 8, !tbaa !14
  %15 = tail call ptr @av_hwdevice_get_type_name(i32 noundef %14) #8
  %16 = load ptr, ptr %10, align 8, !tbaa !21
  tail call void (ptr, i32, ptr, ...) @av_log(ptr noundef null, i32 noundef 24, ptr noundef nonnull @.str.11, i32 noundef %3, ptr noundef %12, ptr noundef %15, ptr noundef %16) #8
  br label %.sink.split

.sink.split:                                      ; preds = %5, %11, %0
  %.sink8 = phi ptr [ %1, %0 ], [ %10, %11 ], [ %10, %5 ]
  %17 = getelementptr inbounds nuw i8, ptr %.sink8, i64 16
  %18 = load ptr, ptr %17, align 8, !tbaa !27
  br label %19

19:                                               ; preds = %.sink.split, %2
  %.0 = phi ptr [ null, %2 ], [ %18, %.sink.split ]
  ret ptr %.0
}